target datalayout = "e-m:e-p270:32:32-p271:32:32-p272:64:64-i64:64-i128:128-f80:128-n8:16:32:64-S128"
target triple = "x86_64-pc-linux-gnu"

%struct.H5G_node_key_t = type { i64 }
%struct.H5B_shared_t = type { ptr, i32, i64, i64, i64, i64, i64, ptr, ptr, ptr }

@H5G_init_g = external global i8, align 1
@H5_libterm_g = external global i8, align 1

; Function Attrs: nounwind uwtable
define internal i32 @H5G__node_decode_key(ptr noundef %0, ptr noundef %1, ptr noundef %2) #0 {
  %4 = alloca ptr, align 8
  %5 = alloca ptr, align 8
  %6 = alloca ptr, align 8
  %7 = alloca ptr, align 8
  %8 = alloca i64, align 8
  store ptr %0, ptr %4, align 8, !tbaa !92
  store ptr %1, ptr %5, align 8, !tbaa !41
  store ptr %2, ptr %6, align 8, !tbaa !8
  call void @llvm.lifetime.start.p0(i64 8, ptr %7) #8
  %9 = load ptr, ptr %6, align 8, !tbaa !8
  store ptr %9, ptr %7, align 8, !tbaa !17
  %10 = load i8, ptr @H5G_init_g, align 1, !tbaa !9, !range !11, !noundef !12
  %11 = trunc i8 %10 to i1
  br i1 %11, label %16, label %12

12:                                               ; preds = %3
  %13 = load i8, ptr @H5_libterm_g, align 1, !tbaa !9, !range !11, !noundef !12
  %14 = trunc i8 %13 to i1
  %15 = xor i1 %14, true
  br label %16

16:                                               ; preds = %12, %3
  %17 = phi i1 [ true, %3 ], [ %15, %12 ]
  %18 = xor i1 %17, true
  %19 = xor i1 %18, true
  %20 = zext i1 %19 to i32
  %21 = sext i32 %20 to i64
  %22 = call i64 @llvm.expect.i64(i64 %21, i64 1)
  %23 = icmp ne i64 %22, 0
  br i1 %23, label %24, label %138

24:                                               ; preds = %16
  br label %25

25:                                               ; preds = %24
  %26 = load ptr, ptr %4, align 8, !tbaa !92
  %27 = getelementptr inbounds nuw %struct.H5B_shared_t, ptr %26, i32 0, i32 6
  %28 = load i64, ptr %27, align 8, !tbaa !94
  switch i64 %28, label %134 [
    i64 4, label %29
    i64 8, label %78
    i64 2, label %107
  ]

29:                                               ; preds = %25
  br label %30

30:                                               ; preds = %29
  %31 = load ptr, ptr %5, align 8, !tbaa !41
  %32 = load i8, ptr %31, align 1, !tbaa !85
  %33 = zext i8 %32 to i32
  %34 = and i32 %33, 255
  %35 = zext i32 %34 to i64
  %36 = load ptr, ptr %7, align 8, !tbaa !17
  %37 = getelementptr inbounds nuw %struct.H5G_node_key_t, ptr %36, i32 0, i32 0
  store i64 %35, ptr %37, align 8, !tbaa !33
  %38 = load ptr, ptr %5, align 8, !tbaa !41
  %39 = getelementptr inbounds nuw i8, ptr %38, i32 1
  store ptr %39, ptr %5, align 8, !tbaa !41
  %40 = load ptr, ptr %5, align 8, !tbaa !41
  %41 = load i8, ptr %40, align 1, !tbaa !85
  %42 = zext i8 %41 to i32
  %43 = and i32 %42, 255
  %44 = shl i32 %43, 8
  %45 = zext i32 %44 to i64
  %46 = load ptr, ptr %7, align 8, !tbaa !17
  %47 = getelementptr inbounds nuw %struct.H5G_node_key_t, ptr %46, i32 0, i32 0
  %48 = load i64, ptr %47, align 8, !tbaa !33
  %49 = or i64 %48, %45
  store i64 %49, ptr %47, align 8, !tbaa !33
  %50 = load ptr, ptr %5, align 8, !tbaa !41
  %51 = getelementptr inbounds nuw i8, ptr %50, i32 1
  store ptr %51, ptr %5, align 8, !tbaa !41
  %52 = load ptr, ptr %5, align 8, !tbaa !41
  %53 = load i8, ptr %52, align 1, !tbaa !85
  %54 = zext i8 %53 to i32
  %55 = and i32 %54, 255
  %56 = shl i32 %55, 16
  %57 = zext i32 %56 to i64
  %58 = load ptr, ptr %7, align 8, !tbaa !17
  %59 = getelementptr inbounds nuw %struct.H5G_node_key_t, ptr %58, i32 0, i32 0
  %60 = load i64, ptr %59, align 8, !tbaa !33
  %61 = or i64 %60, %57
  store i64 %61, ptr %59, align 8, !tbaa !33
  %62 = load ptr, ptr %5, align 8, !tbaa !41
  %63 = getelementptr inbounds nuw i8, ptr %62, i32 1
  store ptr %63, ptr %5, align 8, !tbaa !41
  %64 = load ptr, ptr %5, align 8, !tbaa !41
  %65 = load i8, ptr %64, align 1, !tbaa !85
  %66 = zext i8 %65 to i32
  %67 = and i32 %66, 255
  %68 = shl i32 %67, 24
  %69 = zext i32 %68 to i64
  %70 = load ptr, ptr %7, align 8, !tbaa !17
  %71 = getelementptr inbounds nuw %struct.H5G_node_key_t, ptr %70, i32 0, i32 0
  %72 = load i64, ptr %71, align 8, !tbaa !33
  %73 = or i64 %72, %69
  store i64 %73, ptr %71, align 8, !tbaa !33
  %74 = load ptr, ptr %5, align 8, !tbaa !41
  %75 = getelementptr inbounds nuw i8, ptr %74, i32 1
  store ptr %75, ptr %5, align 8, !tbaa !41
  br label %76

76:                                               ; preds = %30
  br label %77

77:                                               ; preds = %76
  br label %135

78:                                               ; preds = %25
  br label %79

79:                                               ; preds = %78
  call void @llvm.lifetime.start.p0(i64 8, ptr %8) #8
  %80 = load ptr, ptr %7, align 8, !tbaa !17
  %81 = getelementptr inbounds nuw %struct.H5G_node_key_t, ptr %80, i32 0, i32 0
  store i64 0, ptr %81, align 8, !tbaa !33
  %82 = load ptr, ptr %5, align 8, !tbaa !41
  %83 = getelementptr inbounds i8, ptr %82, i64 8
  store ptr %83, ptr %5, align 8, !tbaa !41
  store i64 0, ptr %8, align 8, !tbaa !21
  br label %84

84:                                               ; preds = %99, %79
  %85 = load i64, ptr %8, align 8, !tbaa !21
  %86 = icmp ult i64 %85, 8
  br i1 %86, label %87, label %102

87:                                               ; preds = %84
  %88 = load ptr, ptr %7, align 8, !tbaa !17
  %89 = getelementptr inbounds nuw %struct.H5G_node_key_t, ptr %88, i32 0, i32 0
  %90 = load i64, ptr %89, align 8, !tbaa !33
  %91 = shl i64 %90, 8
  %92 = load ptr, ptr %5, align 8, !tbaa !41
  %93 = getelementptr inbounds i8, ptr %92, i32 -1
  store ptr %93, ptr %5, align 8, !tbaa !41
  %94 = load i8, ptr %93, align 1, !tbaa !85
  %95 = zext i8 %94 to i64
  %96 = or i64 %91, %95
  %97 = load ptr, ptr %7, align 8, !tbaa !17
  %98 = getelementptr inbounds nuw %struct.H5G_node_key_t, ptr %97, i32 0, i32 0
  store i64 %96, ptr %98, align 8, !tbaa !33
  br label %99

99:                                               ; preds = %87
  %100 = load i64, ptr %8, align 8, !tbaa !21
  %101 = add i64 %100, 1
  store i64 %101, ptr %8, align 8, !tbaa !21
  br label %84, !llvm.loop !97

102:                                              ; preds = %84
  %103 = load ptr, ptr %5, align 8, !tbaa !41
  %104 = getelementptr inbounds i8, ptr %103, i64 8
  store ptr %104, ptr %5, align 8, !tbaa !41
  call void @llvm.lifetime.end.p0(i64 8, ptr %8) #8
  br label %105

105:                                              ; preds = %102
  br label %106

106:                                              ; preds = %105
  br label %135

107:                                              ; preds = %25
  br label %108

108:                                              ; preds = %107
  %109 = load ptr, ptr %5, align 8, !tbaa !41
  %110 = load i8, ptr %109, align 1, !tbaa !85
  %111 = zext i8 %110 to i32
  %112 = and i32 %111, 255
  %113 = trunc i32 %112 to i16
  %114 = zext i16 %113 to i64
  %115 = load ptr, ptr %7, align 8, !tbaa !17
  %116 = getelementptr inbounds nuw %struct.H5G_node_key_t, ptr %115, i32 0, i32 0
  store i64 %114, ptr %116, align 8, !tbaa !33
  %117 = load ptr, ptr %5, align 8, !tbaa !41
  %118 = getelementptr inbounds nuw i8, ptr %117, i32 1
  store ptr %118, ptr %5, align 8, !tbaa !41
  %119 = load ptr, ptr %5, align 8, !tbaa !41
  %120 = load i8, ptr %119, align 1, !tbaa !85
  %121 = zext i8 %120 to i32
  %122 = and i32 %121, 255
  %123 = shl i32 %122, 8
  %124 = trunc i32 %123 to i16
  %125 = zext i16 %124 to i64
  %126 = load ptr, ptr %7, align 8, !tbaa !17
  %127 = getelementptr inbounds nuw %struct.H5G_node_key_t, ptr %126, i32 0, i32 0
  %128 = load i64, ptr %127, align 8, !tbaa !33
  %129 = or i64 %128, %125
  store i64 %129, ptr %127, align 8, !tbaa !33
  %130 = load ptr, ptr %5, align 8, !tbaa !41
  %131 = getelementptr inbounds nuw i8, ptr %130, i32 1
  store ptr %131, ptr %5, align 8, !tbaa !41
  br label %132

132:                                              ; preds = %108
  br label %133

133:                                              ; preds = %132
  br label %135

134:                                              ; preds = %25
  br label %135

135:                                              ; preds = %134, %133, %106, %77
  br label %136

136:                                              ; preds = %135
  br label %137

137:                                              ; preds = %136
  br label %138

138:                                              ; preds = %137, %16
  call void @llvm.lifetime.end.p0(i64 8, ptr %7) #8
  ret i32 0
}