; Function Attrs: nofree norecurse nosync nounwind memory(read, argmem: readwrite, inaccessiblemem: none) uwtable
define internal noundef i32 @H5G__node_decode_key(ptr noundef readonly captures(none) %0, ptr noundef readonly captures(none) %1, ptr noundef writeonly captures(none) %2) #1 {
  %4 = load i8, ptr @H5G_init_g, align 1, !tbaa !3, !range !7, !noundef !8
  %5 = trunc nuw i8 %4 to i1
  %6 = load i8, ptr @H5_libterm_g, align 1, !range !7
  %7 = trunc nuw i8 %6 to i1
  %8 = xor i1 %7, true
  %9 = select i1 %5, i1 true, i1 %8
  br i1 %9, label %10, label %.loopexit, !prof !9

10:                                               ; preds = %3
  %11 = getelementptr inbounds nuw i8, ptr %0, i64 48
  %12 = load i64, ptr %11, align 8, !tbaa !74
  switch i64 %12, label %.loopexit [
    i64 4, label %13
    i64 8, label %26
    i64 2, label %36
  ]

13:                                               ; preds = %10
  %14 = load i8, ptr %1, align 1, !tbaa !66
  %15 = zext i8 %14 to i64
  store i64 %15, ptr %2, align 8, !tbaa !25
  %16 = getelementptr inbounds nuw i8, ptr %1, i64 1
  %17 = load i8, ptr %16, align 1, !tbaa !66
  %18 = zext i8 %17 to i64
  %19 = shl nuw nsw i64 %18, 8
  %20 = or disjoint i64 %19, %15
  store i64 %20, ptr %2, align 8, !tbaa !25
  %21 = getelementptr inbounds nuw i8, ptr %1, i64 2
  %22 = load i8, ptr %21, align 1, !tbaa !66
  %23 = zext i8 %22 to i64
  %24 = shl nuw nsw i64 %23, 16
  %25 = or disjoint i64 %24, %20
  br label %.loopexit.sink.split

26:                                               ; preds = %10
  store i64 0, ptr %2, align 8, !tbaa !25
  %27 = getelementptr inbounds nuw i8, ptr %1, i64 8
  br label %28

28:                                               ; preds = %26, %28
  %.029 = phi i64 [ 0, %26 ], [ %35, %28 ]
  %.02728 = phi ptr [ %27, %26 ], [ %31, %28 ]
  %29 = phi i64 [ 0, %26 ], [ %34, %28 ]
  %30 = shl i64 %29, 8
  %31 = getelementptr inbounds i8, ptr %.02728, i64 -1
  %32 = load i8, ptr %31, align 1, !tbaa !66
  %33 = zext i8 %32 to i64
  %34 = or disjoint i64 %30, %33
  store i64 %34, ptr %2, align 8, !tbaa !25
  %35 = add nuw nsw i64 %.029, 1
  %exitcond.not = icmp eq i64 %35, 8
  br i1 %exitcond.not, label %.loopexit, label %28, !llvm.loop !77

36:                                               ; preds = %10
  %37 = load i8, ptr %1, align 1, !tbaa !66
  %38 = zext i8 %37 to i64
  br label %.loopexit.sink.split

.loopexit.sink.split:                             ; preds = %36, %13
  %.sink = phi i64 [ %25, %13 ], [ %38, %36 ]
  %.sink34 = phi i64 [ 3, %13 ], [ 1, %36 ]
  %.sink32 = phi i64 [ 24, %13 ], [ 8, %36 ]
  store i64 %.sink, ptr %2, align 8, !tbaa !25
  %39 = getelementptr inbounds nuw i8, ptr %1, i64 %.sink34
  %40 = load i8, ptr %39, align 1, !tbaa !66
  %41 = zext i8 %40 to i64
  %42 = shl nuw nsw i64 %41, %.sink32
  %43 = or disjoint i64 %42, %.sink
  store i64 %43, ptr %2, align 8, !tbaa !25
  br label %.loopexit

.loopexit:                                        ; preds = %28, %.loopexit.sink.split, %10, %3
  ret i32 0
}